Certificate:
    Data:
        Version: 3 (0x2)
        Serial Number: 1 (0x1)
        Signature Algorithm: sha256WithRSAEncryption
        Issuer: C=US, ST=Maryland, L=Baltimore, O=Test CA, Limited, OU=Server Research Department, CN=Test CA/emailAddress=test@example.com
        Validity
            Not Before: Mar 21 20:51:23 2016 GMT
            Not After : Dec 16 20:51:23 2018 GMT
        Subject: C=US, ST=MD, L=Baltimore, O=Test CA, Limited, CN=Test CA
        Subject Public Key Info:
            Public Key Algorithm: rsaEncryption
            RSA Public Key: (2048 bit)
                Modulus (2048 bit):
                    00:a0:f3:b0:d1:ec:61:41:5d:33:c8:2d:89:ea:67:
                    3b:7a:a6:97:d7:93:ea:77:7e:db:e0:93:1d:4d:db:
                    53:9c:f5:d6:a5:ac:9c:b3:c5:02:de:fb:00:45:81:
                    14:4a:ad:99:7c:8d:0d:44:c9:3b:cf:25:46:de:5d:
                    27:01:28:a8:ab:77:22:86:7a:d1:f2:8a:ec:0b:97:
                    7d:e5:f4:94:17:cd:ac:c5:95:5b:38:c2:94:0f:a6:
                    e5:9a:f5:25:ac:72:73:21:4d:73:3f:0d:4f:af:35:
                    bf:1b:81:36:09:87:a6:b7:d5:04:36:f5:35:72:8d:
                    be:bc:46:20:dd:6f:b7:dd:00:b5:5f:95:ef:d1:25:
                    d8:6c:57:e6:69:64:5a:72:65:8b:a5:44:ed:36:b0:
                    61:12:72:11:9d:0c:5c:24:43:42:27:bf:7b:24:3f:
                    dd:e9:1d:8a:9d:2c:0c:43:9f:eb:28:4a:a5:50:cd:
                    0a:11:b0:9d:20:e8:69:0d:37:b4:b8:c3:5d:d9:04:
                    5b:65:52:27:a8:82:22:02:2f:93:65:83:66:b4:d0:
                    f0:d4:df:a7:76:3a:b8:f3:60:41:6f:42:43:03:d7:
                    1c:d0:36:75:7b:bd:82:97:d6:47:47:ac:c3:d5:d0:
                    23:52:96:c7:0b:a3:32:8d:86:fb:81:81:b8:1d:6d:
                    84:49
                Exponent: 65537 (0x10001)
        X509v3 extensions:
            X509v3 Subject Key Identifier: 
                00:C5:82:EF:4E:CC:FC:7F:B1:B0:26:04:7D:BB:59:E8:7B:A5:04:70
            X509v3 Authority Key Identifier: 
                keyid:17:35:C8:5D:36:60:5C:55:93:1B:5A:76:3D:C0:94:BB:CB:7C:E4:B7

            X509v3 Basic Constraints: 
                CA:FALSE
            X509v3 Key Usage: 
                Digital Signature, Key Encipherment
            X509v3 Subject Alternative Name: 
                DNS:example.com, DNS:www.example.com, DNS:mail.example.com, DNS:ftp.example.com
            Netscape Comment: 
                OpenSSL Generated Certificate
    Signature Algorithm: sha256WithRSAEncryption
        4c:3c:d1:bc:5c:e9:f6:5c:4b:b0:27:d1:4f:5b:d9:18:a2:ac:
        c1:f3:2d:a6:46:ff:07:7f:4e:3b:e7:f7:42:a8:0b:68:01:b8:
        42:f7:52:87:7d:4a:99:3a:8e:e7:62:26:2f:32:17:d0:cc:6c:
        b8:91:d9:0f:db:db:5e:22:d4:06:6f:74:93:61:ca:cf:ae:4b:
        1f:14:a6:e2:3e:f4:6f:0a:03:4c:dc:9a:95:9d:dd:25:d5:67:
        30:39:cd:c0:f4:44:43:57:1a:8a:68:53:b7:1d:ab:71:d6:ab:
        e5:18:18:04:f4:34:5f:13:ef:fd:0f:f5:98:7d:e7:14:1e:74:
        e1:e5:f8:ac:9d:f6:98:8d:bb:3f:ab:f1:ed:37:5e:d0:ef:6a:
        67:cc:68:bb:85:a6:5c:f8:41:1f:46:f8:12:1f:fe:05:bb:aa:
        55:ff:11:a5:38:2d:b6:a1:2b:fe:25:d5:a1:75:5f:fa:14:92:
        da:de:f0:44:e7:2e:66:e8:a0:1b:2b:5e:7f:09:16:dc:b2:16:
        f7:b0:1c:27:0e:f8:51:cd:2e:45:9b:89:6e:fd:0b:87:c3:a1:
        0c:fc:db:88:85:39:e2:1f:c5:15:aa:6a:21:1a:25:ac:78:b6:
        d6:e0:be:cd:92:5b:43:fa:62:b2:bb:8b:c6:32:dc:20:d4:11:
        6b:e4:b7:0b:5d:1f:50:1c:fb:82:af:f5:64:fe:f2:d1:b8:22:
        40:cf:29:52:60:76:64:d7:86:83:02:6a:8a:e0:c3:ab:f6:c4:
        98:fa:0a:c5:02:e0:49:e7:4d:5b:6f:e0:b2:66:87:c1:e5:69:
        74:ee:af:50:90:3e:64:56:a2:d9:81:0d:97:7e:2d:aa:b9:2c:
        a7:8c:98:03:24:df:55:f9:de:7b:bf:2d:ad:30:06:9d:d8:9a:
        a5:09:75:b4:14:81:1b:bc:c3:9a:d5:3e:3c:e1:87:eb:43:68:
        d5:fc:3d:92:5c:db:b9:a9:18:1a:c5:14:24:15:8f:36:6a:78:
        f7:34:af:f6:45:8e:4f:eb:2c:42:d6:a4:17:6c:8c:c7:82:f9:
        8c:c9:93:74:ca:98:d9:e5:33:77:d3:06:4a:42:3b:b1:43:b4:
        5f:60:bc:cf:0e:f9:30:20:fe:53:ac:c4:a7:60:72:2e:a9:5c:
        8b:06:a9:09:a8:47:ec:32:68:4b:fe:13:87:50:0e:eb:9d:29:
        1c:6d:f0:9b:5a:9b:fd:9d:f7:37:a1:e4:ca:57:57:91:9f:57:
        01:55:be:05:ea:f4:26:a1:62:5e:60:43:4f:3e:3c:eb:18:fc:
        5d:29:1b:c9:1d:e7:fb:03:44:9c:cc:b6:00:f5:70:a4:b9:02:
        96:01:35:e3:4f:cc:87:89
-----BEGIN CERTIFICATE-----
MIIFVDCCAzygAwIBAgIBATANBgkqhkiG9w0BAQsFADCBpzELMAkGA1UEBhMCVVMx
ETAPBgNVBAgMCE1hcnlsYW5kMRIwEAYDVQQHDAlCYWx0aW1vcmUxGTAXBgNVBAoM
EFRlc3QgQ0EsIExpbWl0ZWQxIzAhBgNVBAsMGlNlcnZlciBSZXNlYXJjaCBEZXBh
cnRtZW50MRAwDgYDVQQDDAdUZXN0IENBMR8wHQYJKoZIhvcNAQkBFhB0ZXN0QGV4
YW1wbGUuY29tMB4XDTE2MDMyMTIwNTEyM1oXDTE4MTIxNjIwNTEyM1owWzELMAkG
A1UEBhMCVVMxCzAJBgNVBAgMAk1EMRIwEAYDVQQHDAlCYWx0aW1vcmUxGTAXBgNV
BAoMEFRlc3QgQ0EsIExpbWl0ZWQxEDAOBgNVBAMMB1Rlc3QgQ0EwggEiMA0GCSqG
SIb3DQEBAQUAA4IBDwAwggEKAoIBAQCg87DR7GFBXTPILYnqZzt6ppfXk+p3ftvg
kx1N21Oc9dalrJyzxQLe+wBFgRRKrZl8jQ1EyTvPJUbeXScBKKirdyKGetHyiuwL
l33l9JQXzazFlVs4wpQPpuWa9SWscnMhTXM/DU+vNb8bgTYJh6a31QQ29TVyjb68
RiDdb7fdALVfle/RJdhsV+ZpZFpyZYulRO02sGESchGdDFwkQ0Inv3skP93pHYqd
LAxDn+soSqVQzQoRsJ0g6GkNN7S4w13ZBFtlUieogiICL5Nlg2a00PDU36d2Orjz
YEFvQkMD1xzQNnV7vYKX1kdHrMPV0CNSlscLozKNhvuBgbgdbYRJAgMBAAGjgdUw
gdIwHQYDVR0OBBYEFADFgu9OzPx/sbAmBH27Weh7pQRwMB8GA1UdIwQYMBaAFBc1
yF02YFxVkxtadj3AlLvLfOS3MAkGA1UdEwQCMAAwCwYDVR0PBAQDAgWgMEoGA1Ud
EQRDMEGCC2V4YW1wbGUuY29tgg93d3cuZXhhbXBsZS5jb22CEG1haWwuZXhhbXBs
ZS5jb22CD2Z0cC5leGFtcGxlLmNvbTAsBglghkgBhvhCAQ0EHxYdT3BlblNTTCBH
ZW5lcmF0ZWQgQ2VydGlmaWNhdGUwDQYJKoZIhvcNAQELBQADggIBAEw80bxc6fZc
S7An0U9b2RiirMHzLaZG/wd/Tjvn90KoC2gBuEL3Uod9Spk6judiJi8yF9DMbLiR
2Q/b214i1AZvdJNhys+uSx8UpuI+9G8KA0zcmpWd3SXVZzA5zcD0RENXGopoU7cd
q3HWq+UYGAT0NF8T7/0P9Zh95xQedOHl+Kyd9piNuz+r8e03XtDvamfMaLuFplz4
QR9G+BIf/gW7qlX/EaU4LbahK/4l1aF1X/oUktre8ETnLmbooBsrXn8JFtyyFvew
HCcO+FHNLkWbiW79C4fDoQz824iFOeIfxRWqaiEaJax4ttbgvs2SW0P6YrK7i8Yy
3CDUEWvktwtdH1Ac+4Kv9WT+8tG4IkDPKVJgdmTXhoMCaorgw6v2xJj6CsUC4Enn
TVtv4LJmh8HlaXTur1CQPmRWotmBDZd+Laq5LKeMmAMk31X53nu/La0wBp3YmqUJ
dbQUgRu8w5rVPjzhh+tDaNX8PZJc27mpGBrFFCQVjzZqePc0r/ZFjk/rLELWpBds
jMeC+YzJk3TKmNnlM3fTBkpCO7FDtF9gvM8O+TAg/lOsxKdgci6pXIsGqQmoR+wy
aEv+E4dQDuudKRxt8Jtam/2d9zeh5MpXV5GfVwFVvgXq9CahYl5gQ08+POsY/F0p
G8kd5/sDRJzMtgD1cKS5ApYBNeNPzIeJ
-----END CERTIFICATE-----
